target datalayout = "e-m:e-p270:32:32-p271:32:32-p272:64:64-i64:64-i128:128-f80:128-n8:16:32:64-S128"
target triple = "x86_64-pc-linux-gnu"

%struct.lean_object = type { i32, i32 }
%struct.lean_sarray_object = type { %struct.lean_object, i64, i64, [0 x i8] }

@l_ByteArray_foldlMUnsafe_fold___at_System_Uri_UriEscape_uriEscapeAsciiChar___spec__1___closed__1 = internal global ptr null, align 8

; Function Attrs: inlinehint nounwind uwtable
define internal ptr @lean_box(i64 noundef %0) #0 {
  %2 = alloca i64, align 8
  store i64 %0, ptr %2, align 8, !tbaa !11
  %3 = load i64, ptr %2, align 8, !tbaa !11
  %4 = shl i64 %3, 1
  %5 = or i64 %4, 1
  %6 = inttoptr i64 %5 to ptr
  ret ptr %6
}

; Function Attrs: inlinehint nounwind uwtable
define internal ptr @lean_usize_to_nat(i64 noundef %0) #0 {
  %2 = alloca ptr, align 8
  %3 = alloca i64, align 8
  store i64 %0, ptr %3, align 8, !tbaa !11
  %4 = load i64, ptr %3, align 8, !tbaa !11
  %5 = icmp ule i64 %4, 9223372036854775807
  %6 = zext i1 %5 to i32
  %7 = sext i32 %6 to i64
  %8 = call i64 @llvm.expect.i64(i64 %7, i64 1)
  %9 = icmp ne i64 %8, 0
  br i1 %9, label %10, label %13

10:                                               ; preds = %1
  %11 = load i64, ptr %3, align 8, !tbaa !11
  %12 = call ptr @lean_box(i64 noundef %11)
  store ptr %12, ptr %2, align 8
  br label %16

13:                                               ; preds = %1
  %14 = load i64, ptr %3, align 8, !tbaa !11
  %15 = call ptr @lean_big_usize_to_nat(i64 noundef %14)
  store ptr %15, ptr %2, align 8
  br label %16

16:                                               ; preds = %13, %10
  %17 = load ptr, ptr %2, align 8
  ret ptr %17
}

; Function Attrs: inlinehint nounwind uwtable
define internal ptr @lean_to_sarray(ptr noundef %0) #0 {
  %2 = alloca ptr, align 8
  store ptr %0, ptr %2, align 8, !tbaa !7
  %3 = load ptr, ptr %2, align 8, !tbaa !7
  ret ptr %3
}

; Function Attrs: alwaysinline nounwind uwtable
define internal void @lean_dec_ref(ptr noundef %0) #1 {
  %2 = alloca ptr, align 8
  store ptr %0, ptr %2, align 8, !tbaa !7
  %3 = load ptr, ptr %2, align 8, !tbaa !7
  %4 = getelementptr inbounds nuw %struct.lean_object, ptr %3, i32 0, i32 0
  %5 = load i32, ptr %4, align 4, !tbaa !13
  %6 = icmp sgt i32 %5, 1
  %7 = zext i1 %6 to i32
  %8 = sext i32 %7 to i64
  %9 = call i64 @llvm.expect.i64(i64 %8, i64 1)
  %10 = icmp ne i64 %9, 0
  br i1 %10, label %11, label %16

11:                                               ; preds = %1
  %12 = load ptr, ptr %2, align 8, !tbaa !7
  %13 = getelementptr inbounds nuw %struct.lean_object, ptr %12, i32 0, i32 0
  %14 = load i32, ptr %13, align 4, !tbaa !13
  %15 = add i32 %14, -1
  store i32 %15, ptr %13, align 4, !tbaa !13
  br label %24

16:                                               ; preds = %1
  %17 = load ptr, ptr %2, align 8, !tbaa !7
  %18 = getelementptr inbounds nuw %struct.lean_object, ptr %17, i32 0, i32 0
  %19 = load i32, ptr %18, align 4, !tbaa !13
  %20 = icmp ne i32 %19, 0
  br i1 %20, label %21, label %23

21:                                               ; preds = %16
  %22 = load ptr, ptr %2, align 8, !tbaa !7
  call void @lean_dec_ref_cold(ptr noundef %22)
  br label %23

23:                                               ; preds = %21, %16
  br label %24

24:                                               ; preds = %23, %11
  ret void
}

; Function Attrs: alwaysinline nounwind uwtable
define internal zeroext i1 @lean_is_scalar(ptr noundef %0) #1 {
  %2 = alloca ptr, align 8
  store ptr %0, ptr %2, align 8, !tbaa !7
  %3 = load ptr, ptr %2, align 8, !tbaa !7
  %4 = ptrtoint ptr %3 to i64
  %5 = and i64 %4, 1
  %6 = icmp eq i64 %5, 1
  ret i1 %6
}

; Function Attrs: inlinehint nounwind uwtable
define internal ptr @lean_unsigned_to_nat(i32 noundef %0) #0 {
  %2 = alloca i32, align 4
  store i32 %0, ptr %2, align 4, !tbaa !9
  %3 = load i32, ptr %2, align 4, !tbaa !9
  %4 = zext i32 %3 to i64
  %5 = call ptr @lean_usize_to_nat(i64 noundef %4)
  ret ptr %5
}

; Function Attrs: inlinehint nounwind uwtable
define internal ptr @lean_uint8_to_nat(i8 noundef zeroext %0) #0 {
  %2 = alloca i8, align 1
  store i8 %0, ptr %2, align 1, !tbaa !4
  %3 = load i8, ptr %2, align 1, !tbaa !4
  %4 = zext i8 %3 to i64
  %5 = call ptr @lean_usize_to_nat(i64 noundef %4)
  ret ptr %5
}

; Function Attrs: inlinehint nounwind uwtable
define internal zeroext i8 @lean_uint8_mod(i8 noundef zeroext %0, i8 noundef zeroext %1) #0 {
  %3 = alloca i8, align 1
  %4 = alloca i8, align 1
  store i8 %0, ptr %3, align 1, !tbaa !4
  store i8 %1, ptr %4, align 1, !tbaa !4
  %5 = load i8, ptr %4, align 1, !tbaa !4
  %6 = zext i8 %5 to i32
  %7 = icmp eq i32 %6, 0
  br i1 %7, label %8, label %11

8:                                                ; preds = %2
  %9 = load i8, ptr %3, align 1, !tbaa !4
  %10 = zext i8 %9 to i32
  br label %17

11:                                               ; preds = %2
  %12 = load i8, ptr %3, align 1, !tbaa !4
  %13 = zext i8 %12 to i32
  %14 = load i8, ptr %4, align 1, !tbaa !4
  %15 = zext i8 %14 to i32
  %16 = srem i32 %13, %15
  br label %17

17:                                               ; preds = %11, %8
  %18 = phi i32 [ %10, %8 ], [ %16, %11 ]
  %19 = trunc i32 %18 to i8
  ret i8 %19
}

; Function Attrs: inlinehint nounwind uwtable
define internal zeroext i8 @lean_uint8_div(i8 noundef zeroext %0, i8 noundef zeroext %1) #0 {
  %3 = alloca i8, align 1
  %4 = alloca i8, align 1
  store i8 %0, ptr %3, align 1, !tbaa !4
  store i8 %1, ptr %4, align 1, !tbaa !4
  %5 = load i8, ptr %4, align 1, !tbaa !4
  %6 = zext i8 %5 to i32
  %7 = icmp eq i32 %6, 0
  br i1 %7, label %8, label %9

8:                                                ; preds = %2
  br label %15

9:                                                ; preds = %2
  %10 = load i8, ptr %3, align 1, !tbaa !4
  %11 = zext i8 %10 to i32
  %12 = load i8, ptr %4, align 1, !tbaa !4
  %13 = zext i8 %12 to i32
  %14 = sdiv i32 %11, %13
  br label %15

15:                                               ; preds = %9, %8
  %16 = phi i32 [ 0, %8 ], [ %14, %9 ]
  %17 = trunc i32 %16 to i8
  ret i8 %17
}

; Function Attrs: inlinehint nounwind uwtable
define internal ptr @lean_sarray_cptr(ptr noundef %0) #0 {
  %2 = alloca ptr, align 8
  store ptr %0, ptr %2, align 8, !tbaa !7
  %3 = load ptr, ptr %2, align 8, !tbaa !7
  %4 = call ptr @lean_to_sarray(ptr noundef %3)
  %5 = getelementptr inbounds nuw %struct.lean_sarray_object, ptr %4, i32 0, i32 3
  %6 = getelementptr inbounds [0 x i8], ptr %5, i64 0, i64 0
  ret ptr %6
}

; Function Attrs: inlinehint nounwind uwtable
define internal i64 @lean_usize_add(i64 noundef %0, i64 noundef %1) #0 {
  %3 = alloca i64, align 8
  %4 = alloca i64, align 8
  store i64 %0, ptr %3, align 8, !tbaa !11
  store i64 %1, ptr %4, align 8, !tbaa !11
  %5 = load i64, ptr %3, align 8, !tbaa !11
  %6 = load i64, ptr %4, align 8, !tbaa !11
  %7 = add i64 %5, %6
  ret i64 %7
}

; Function Attrs: alwaysinline nounwind uwtable
define internal void @lean_dec(ptr noundef %0) #1 {
  %2 = alloca ptr, align 8
  store ptr %0, ptr %2, align 8, !tbaa !7
  %3 = load ptr, ptr %2, align 8, !tbaa !7
  %4 = call zeroext i1 @lean_is_scalar(ptr noundef %3)
  br i1 %4, label %7, label %5

5:                                                ; preds = %1
  %6 = load ptr, ptr %2, align 8, !tbaa !7
  call void @lean_dec_ref(ptr noundef %6)
  br label %7

7:                                                ; preds = %5, %1
  ret void
}

; Function Attrs: nounwind uwtable
define ptr @l_System_Uri_UriEscape_uriEscapeAsciiChar_uInt8ToHex(i8 noundef zeroext %0) #2 {
  %2 = alloca i8, align 1
  %3 = alloca i8, align 1
  %4 = alloca i8, align 1
  %5 = alloca i8, align 1
  %6 = alloca ptr, align 8
  %7 = alloca ptr, align 8
  %8 = alloca ptr, align 8
  %9 = alloca ptr, align 8
  %10 = alloca ptr, align 8
  %11 = alloca ptr, align 8
  %12 = alloca ptr, align 8
  store i8 %0, ptr %2, align 1, !tbaa !4
  br label %13

13:                                               ; preds = %1
  call void @llvm.lifetime.start.p0(i64 1, ptr %3) #7
  call void @llvm.lifetime.start.p0(i64 1, ptr %4) #7
  call void @llvm.lifetime.start.p0(i64 1, ptr %5) #7
  call void @llvm.lifetime.start.p0(i64 8, ptr %6) #7
  call void @llvm.lifetime.start.p0(i64 8, ptr %7) #7
  call void @llvm.lifetime.start.p0(i64 8, ptr %8) #7
  call void @llvm.lifetime.start.p0(i64 8, ptr %9) #7
  call void @llvm.lifetime.start.p0(i64 8, ptr %10) #7
  call void @llvm.lifetime.start.p0(i64 8, ptr %11) #7
  call void @llvm.lifetime.start.p0(i64 8, ptr %12) #7
  store i8 16, ptr %3, align 1, !tbaa !4
  %14 = load i8, ptr %2, align 1, !tbaa !4
  %15 = load i8, ptr %3, align 1, !tbaa !4
  %16 = call zeroext i8 @lean_uint8_div(i8 noundef zeroext %14, i8 noundef zeroext %15)
  store i8 %16, ptr %4, align 1, !tbaa !4
  %17 = load i8, ptr %2, align 1, !tbaa !4
  %18 = load i8, ptr %3, align 1, !tbaa !4
  %19 = call zeroext i8 @lean_uint8_mod(i8 noundef zeroext %17, i8 noundef zeroext %18)
  store i8 %19, ptr %5, align 1, !tbaa !4
  %20 = load i8, ptr %4, align 1, !tbaa !4
  %21 = call ptr @lean_uint8_to_nat(i8 noundef zeroext %20)
  store ptr %21, ptr %6, align 8, !tbaa !7
  %22 = load ptr, ptr %6, align 8, !tbaa !7
  %23 = call ptr @l_hexDigitRepr(ptr noundef %22)
  store ptr %23, ptr %7, align 8, !tbaa !7
  %24 = load ptr, ptr %6, align 8, !tbaa !7
  call void @lean_dec(ptr noundef %24)
  %25 = load i8, ptr %5, align 1, !tbaa !4
  %26 = call ptr @lean_uint8_to_nat(i8 noundef zeroext %25)
  store ptr %26, ptr %8, align 8, !tbaa !7
  %27 = load ptr, ptr %8, align 8, !tbaa !7
  %28 = call ptr @l_hexDigitRepr(ptr noundef %27)
  store ptr %28, ptr %9, align 8, !tbaa !7
  %29 = load ptr, ptr %8, align 8, !tbaa !7
  call void @lean_dec(ptr noundef %29)
  %30 = load ptr, ptr %7, align 8, !tbaa !7
  %31 = load ptr, ptr %9, align 8, !tbaa !7
  %32 = call ptr @lean_string_append(ptr noundef %30, ptr noundef %31)
  store ptr %32, ptr %10, align 8, !tbaa !7
  %33 = load ptr, ptr %9, align 8, !tbaa !7
  call void @lean_dec(ptr noundef %33)
  %34 = call ptr @lean_unsigned_to_nat(i32 noundef 0)
  store ptr %34, ptr %11, align 8, !tbaa !7
  %35 = load ptr, ptr %11, align 8, !tbaa !7
  %36 = load ptr, ptr %10, align 8, !tbaa !7
  %37 = call ptr @l_String_mapAux___at_String_toUpper___spec__1(ptr noundef %35, ptr noundef %36)
  store ptr %37, ptr %12, align 8, !tbaa !7
  %38 = load ptr, ptr %12, align 8, !tbaa !7
  call void @llvm.lifetime.end.p0(i64 8, ptr %12) #7
  call void @llvm.lifetime.end.p0(i64 8, ptr %11) #7
  call void @llvm.lifetime.end.p0(i64 8, ptr %10) #7
  call void @llvm.lifetime.end.p0(i64 8, ptr %9) #7
  call void @llvm.lifetime.end.p0(i64 8, ptr %8) #7
  call void @llvm.lifetime.end.p0(i64 8, ptr %7) #7
  call void @llvm.lifetime.end.p0(i64 8, ptr %6) #7
  call void @llvm.lifetime.end.p0(i64 1, ptr %5) #7
  call void @llvm.lifetime.end.p0(i64 1, ptr %4) #7
  call void @llvm.lifetime.end.p0(i64 1, ptr %3) #7
  ret ptr %38
}

; Function Attrs: inlinehint nounwind uwtable
define internal zeroext i8 @lean_byte_array_uget(ptr noundef %0, i64 noundef %1) #0 {
  %3 = alloca ptr, align 8
  %4 = alloca i64, align 8
  store ptr %0, ptr %3, align 8, !tbaa !7
  store i64 %1, ptr %4, align 8, !tbaa !11
  %5 = load ptr, ptr %3, align 8, !tbaa !7
  %6 = call ptr @lean_sarray_cptr(ptr noundef %5)
  %7 = load i64, ptr %4, align 8, !tbaa !11
  %8 = getelementptr inbounds nuw i8, ptr %6, i64 %7
  %9 = load i8, ptr %8, align 1, !tbaa !4
  ret i8 %9
}

; Function Attrs: inlinehint nounwind uwtable
define internal zeroext i8 @lean_usize_dec_eq(i64 noundef %0, i64 noundef %1) #0 {
  %3 = alloca i64, align 8
  %4 = alloca i64, align 8
  store i64 %0, ptr %3, align 8, !tbaa !11
  store i64 %1, ptr %4, align 8, !tbaa !11
  %5 = load i64, ptr %3, align 8, !tbaa !11
  %6 = load i64, ptr %4, align 8, !tbaa !11
  %7 = icmp eq i64 %5, %6
  %8 = zext i1 %7 to i32
  %9 = trunc i32 %8 to i8
  ret i8 %9
}

; Function Attrs: nounwind uwtable
define ptr @l_ByteArray_foldlMUnsafe_fold___at_System_Uri_UriEscape_uriEscapeAsciiChar___spec__1(ptr noundef %0, i64 noundef %1, i64 noundef %2, ptr noundef %3) #2 {
  %5 = alloca ptr, align 8
  %6 = alloca ptr, align 8
  %7 = alloca i64, align 8
  %8 = alloca i64, align 8
  %9 = alloca ptr, align 8
  %10 = alloca i8, align 1
  %11 = alloca i8, align 1
  %12 = alloca ptr, align 8
  %13 = alloca ptr, align 8
  %14 = alloca ptr, align 8
  %15 = alloca ptr, align 8
  %16 = alloca i64, align 8
  %17 = alloca i64, align 8
  %18 = alloca i32, align 4
  store ptr %0, ptr %6, align 8, !tbaa !7
  store i64 %1, ptr %7, align 8, !tbaa !11
  store i64 %2, ptr %8, align 8, !tbaa !11
  store ptr %3, ptr %9, align 8, !tbaa !7
  br label %19

19:                                               ; preds = %47, %4
  call void @llvm.lifetime.start.p0(i64 1, ptr %10) #7
  %20 = load i64, ptr %7, align 8, !tbaa !11
  %21 = load i64, ptr %8, align 8, !tbaa !11
  %22 = call zeroext i8 @lean_usize_dec_eq(i64 noundef %20, i64 noundef %21)
  store i8 %22, ptr %10, align 1, !tbaa !4
  %23 = load i8, ptr %10, align 1, !tbaa !4
  %24 = zext i8 %23 to i32
  %25 = icmp eq i32 %24, 0
  br i1 %25, label %26, label %45

26:                                               ; preds = %19
  call void @llvm.lifetime.start.p0(i64 1, ptr %11) #7
  call void @llvm.lifetime.start.p0(i64 8, ptr %12) #7
  call void @llvm.lifetime.start.p0(i64 8, ptr %13) #7
  call void @llvm.lifetime.start.p0(i64 8, ptr %14) #7
  call void @llvm.lifetime.start.p0(i64 8, ptr %15) #7
  call void @llvm.lifetime.start.p0(i64 8, ptr %16) #7
  call void @llvm.lifetime.start.p0(i64 8, ptr %17) #7
  %27 = load ptr, ptr %6, align 8, !tbaa !7
  %28 = load i64, ptr %7, align 8, !tbaa !11
  %29 = call zeroext i8 @lean_byte_array_uget(ptr noundef %27, i64 noundef %28)
  store i8 %29, ptr %11, align 1, !tbaa !4
  %30 = load ptr, ptr @l_ByteArray_foldlMUnsafe_fold___at_System_Uri_UriEscape_uriEscapeAsciiChar___spec__1___closed__1, align 8, !tbaa !7
  store ptr %30, ptr %12, align 8, !tbaa !7
  %31 = load ptr, ptr %9, align 8, !tbaa !7
  %32 = load ptr, ptr %12, align 8, !tbaa !7
  %33 = call ptr @lean_string_append(ptr noundef %31, ptr noundef %32)
  store ptr %33, ptr %13, align 8, !tbaa !7
  %34 = load i8, ptr %11, align 1, !tbaa !4
  %35 = call ptr @l_System_Uri_UriEscape_uriEscapeAsciiChar_uInt8ToHex(i8 noundef zeroext %34)
  store ptr %35, ptr %14, align 8, !tbaa !7
  %36 = load ptr, ptr %13, align 8, !tbaa !7
  %37 = load ptr, ptr %14, align 8, !tbaa !7
  %38 = call ptr @lean_string_append(ptr noundef %36, ptr noundef %37)
  store ptr %38, ptr %15, align 8, !tbaa !7
  %39 = load ptr, ptr %14, align 8, !tbaa !7
  call void @lean_dec(ptr noundef %39)
  store i64 1, ptr %16, align 8, !tbaa !11
  %40 = load i64, ptr %7, align 8, !tbaa !11
  %41 = load i64, ptr %16, align 8, !tbaa !11
  %42 = call i64 @lean_usize_add(i64 noundef %40, i64 noundef %41)
  store i64 %42, ptr %17, align 8, !tbaa !11
  %43 = load i64, ptr %17, align 8, !tbaa !11
  store i64 %43, ptr %7, align 8, !tbaa !11
  %44 = load ptr, ptr %15, align 8, !tbaa !7
  store ptr %44, ptr %9, align 8, !tbaa !7
  store i32 2, ptr %18, align 4
  call void @llvm.lifetime.end.p0(i64 8, ptr %17) #7
  call void @llvm.lifetime.end.p0(i64 8, ptr %16) #7
  call void @llvm.lifetime.end.p0(i64 8, ptr %15) #7
  call void @llvm.lifetime.end.p0(i64 8, ptr %14) #7
  call void @llvm.lifetime.end.p0(i64 8, ptr %13) #7
  call void @llvm.lifetime.end.p0(i64 8, ptr %12) #7
  call void @llvm.lifetime.end.p0(i64 1, ptr %11) #7
  br label %47

45:                                               ; preds = %19
  %46 = load ptr, ptr %9, align 8, !tbaa !7
  store ptr %46, ptr %5, align 8
  store i32 1, ptr %18, align 4
  br label %47

47:                                               ; preds = %45, %26
  call void @llvm.lifetime.end.p0(i64 1, ptr %10) #7
  %48 = load i32, ptr %18, align 4
  switch i32 %48, label %51 [
    i32 2, label %19
    i32 1, label %49
  ]

49:                                               ; preds = %47
  %50 = load ptr, ptr %5, align 8
  ret ptr %50

51:                                               ; preds = %47
  unreachable
}