; Function Attrs: nounwind uwtable
define ptr @l_ByteArray_foldlMUnsafe_fold___at_System_Uri_UriEscape_uriEscapeAsciiChar___spec__1(ptr noundef readonly captures(none) %0, i64 noundef %1, i64 noundef %2, ptr noundef %3) local_unnamed_addr #0 {
  %.not31 = icmp eq i64 %1, %2
  br i1 %.not31, label %._crit_edge, label %.lr.ph

.lr.ph:                                           ; preds = %4
  %5 = getelementptr inbounds nuw i8, ptr %0, i64 24
  br label %6

6:                                                ; preds = %.lr.ph, %43
  %.01833 = phi i64 [ %1, %.lr.ph ], [ %44, %43 ]
  %.02032 = phi ptr [ %3, %.lr.ph ], [ %33, %43 ]
  %7 = getelementptr inbounds nuw i8, ptr %5, i64 %.01833
  %8 = load i8, ptr %7, align 1, !tbaa !13
  %9 = load ptr, ptr @l_ByteArray_foldlMUnsafe_fold___at_System_Uri_UriEscape_uriEscapeAsciiChar___spec__1___closed__1, align 8, !tbaa !9
  %10 = tail call ptr @lean_string_append(ptr noundef %.02032, ptr noundef %9) #3
  %11 = lshr i8 %8, 3
  %12 = or i8 %11, 1
  %13 = zext nneg i8 %12 to i64
  %14 = inttoptr i64 %13 to ptr
  %15 = tail call ptr @l_hexDigitRepr(ptr noundef nonnull %14) #3
  %16 = shl i8 %8, 1
  %17 = and i8 %16, 30
  %18 = or disjoint i8 %17, 1
  %19 = zext nneg i8 %18 to i64
  %20 = inttoptr i64 %19 to ptr
  %21 = tail call ptr @l_hexDigitRepr(ptr noundef nonnull %20) #3
  %22 = tail call ptr @lean_string_append(ptr noundef %15, ptr noundef %21) #3
  %23 = ptrtoint ptr %21 to i64
  %24 = and i64 %23, 1
  %.not.i22 = icmp eq i64 %24, 0
  br i1 %.not.i22, label %25, label %l_System_Uri_UriEscape_uriEscapeAsciiChar_uInt8ToHex.exit

25:                                               ; preds = %6
  %26 = load i32, ptr %21, align 4, !tbaa !4
  %27 = icmp sgt i32 %26, 1
  br i1 %27, label %28, label %30, !prof !11

28:                                               ; preds = %25
  %29 = add nsw i32 %26, -1
  store i32 %29, ptr %21, align 4, !tbaa !4
  br label %l_System_Uri_UriEscape_uriEscapeAsciiChar_uInt8ToHex.exit

30:                                               ; preds = %25
  %.not.i19.i = icmp eq i32 %26, 0
  br i1 %.not.i19.i, label %l_System_Uri_UriEscape_uriEscapeAsciiChar_uInt8ToHex.exit, label %31

31:                                               ; preds = %30
  tail call void @lean_dec_ref_cold(ptr noundef nonnull %21) #3
  br label %l_System_Uri_UriEscape_uriEscapeAsciiChar_uInt8ToHex.exit

l_System_Uri_UriEscape_uriEscapeAsciiChar_uInt8ToHex.exit: ; preds = %6, %28, %30, %31
  %32 = tail call ptr @l_String_mapAux___at_String_toUpper___spec__1(ptr noundef nonnull inttoptr (i64 1 to ptr), ptr noundef %22) #3
  %33 = tail call ptr @lean_string_append(ptr noundef %10, ptr noundef %32) #3
  %34 = ptrtoint ptr %32 to i64
  %35 = and i64 %34, 1
  %.not30 = icmp eq i64 %35, 0
  br i1 %.not30, label %36, label %43

36:                                               ; preds = %l_System_Uri_UriEscape_uriEscapeAsciiChar_uInt8ToHex.exit
  %37 = load i32, ptr %32, align 4, !tbaa !4
  %38 = icmp sgt i32 %37, 1
  br i1 %38, label %39, label %41, !prof !11

39:                                               ; preds = %36
  %40 = add nsw i32 %37, -1
  store i32 %40, ptr %32, align 4, !tbaa !4
  br label %43

41:                                               ; preds = %36
  %.not.i = icmp eq i32 %37, 0
  br i1 %.not.i, label %43, label %42

42:                                               ; preds = %41
  tail call void @lean_dec_ref_cold(ptr noundef nonnull %32) #3
  br label %43

43:                                               ; preds = %l_System_Uri_UriEscape_uriEscapeAsciiChar_uInt8ToHex.exit, %39, %41, %42
  %44 = add i64 %.01833, 1
  %.not = icmp eq i64 %44, %2
  br i1 %.not, label %._crit_edge, label %6

._crit_edge:                                      ; preds = %43, %4
  %.020.lcssa = phi ptr [ %3, %4 ], [ %33, %43 ]
  ret ptr %.020.lcssa
}